target datalayout = "e-m:e-p270:32:32-p271:32:32-p272:64:64-i64:64-i128:128-f80:128-n8:16:32:64-S128"
target triple = "x86_64-unknown-linux-gnu"

%"class.icu_75::UVector" = type { %"class.icu_75::UObject", i32, i32, ptr, ptr, ptr }
%"class.icu_75::UObject" = type { ptr }
%union.UElement = type { ptr }

; Function Attrs: mustprogress nounwind uwtable
define internal noundef signext i8 @_ZL9U_FAILURE10UErrorCode(i32 noundef %code) #0 {
entry:
  %code.addr = alloca i32, align 4
  store i32 %code, ptr %code.addr, align 4
  %0 = load i32, ptr %code.addr, align 4
  %cmp = icmp sgt i32 %0, 0
  %conv = zext i1 %cmp to i8
  ret i8 %conv
}

; Function Attrs: mustprogress nounwind uwtable
define internal noundef signext i8 @_ZL9U_SUCCESS10UErrorCode(i32 noundef %code) #0 {
entry:
  %code.addr = alloca i32, align 4
  store i32 %code, ptr %code.addr, align 4
  %0 = load i32, ptr %code.addr, align 4
  %cmp = icmp sle i32 %0, 0
  %conv = zext i1 %cmp to i8
  ret i8 %conv
}

; Function Attrs: mustprogress uwtable
define noundef signext i8 @_ZN6icu_757UVector14ensureCapacityEiR10UErrorCode(ptr noundef nonnull align 8 dereferenceable(40) %this, i32 noundef %minimumCapacity, ptr noundef nonnull align 4 dereferenceable(4) %status) #1 align 2 {
entry:
  %retval = alloca i8, align 1
  %this.addr = alloca ptr, align 8
  %minimumCapacity.addr = alloca i32, align 4
  %status.addr = alloca ptr, align 8
  %newCap = alloca i32, align 4
  %newElems = alloca ptr, align 8
  store ptr %this, ptr %this.addr, align 8
  store i32 %minimumCapacity, ptr %minimumCapacity.addr, align 4
  store ptr %status, ptr %status.addr, align 8
  %this1 = load ptr, ptr %this.addr, align 8
  %0 = load ptr, ptr %status.addr, align 8
  %1 = load i32, ptr %0, align 4
  %call = call noundef signext i8 @_ZL9U_FAILURE10UErrorCode(i32 noundef %1)
  %tobool = icmp ne i8 %call, 0
  br i1 %tobool, label %if.then, label %if.end

if.then:                                          ; preds = %entry
  store i8 0, ptr %retval, align 1
  br label %return

if.end:                                           ; preds = %entry
  %2 = load i32, ptr %minimumCapacity.addr, align 4
  %cmp = icmp slt i32 %2, 0
  br i1 %cmp, label %if.then2, label %if.end3

if.then2:                                         ; preds = %if.end
  %3 = load ptr, ptr %status.addr, align 8
  store i32 1, ptr %3, align 4
  store i8 0, ptr %retval, align 1
  br label %return

if.end3:                                          ; preds = %if.end
  %capacity = getelementptr inbounds %"class.icu_75::UVector", ptr %this1, i32 0, i32 2
  %4 = load i32, ptr %capacity, align 4
  %5 = load i32, ptr %minimumCapacity.addr, align 4
  %cmp4 = icmp slt i32 %4, %5
  br i1 %cmp4, label %if.then5, label %if.end24

if.then5:                                         ; preds = %if.end3
  %capacity6 = getelementptr inbounds %"class.icu_75::UVector", ptr %this1, i32 0, i32 2
  %6 = load i32, ptr %capacity6, align 4
  %cmp7 = icmp sgt i32 %6, 1073741823
  br i1 %cmp7, label %if.then8, label %if.end9

if.then8:                                         ; preds = %if.then5
  %7 = load ptr, ptr %status.addr, align 8
  store i32 1, ptr %7, align 4
  store i8 0, ptr %retval, align 1
  br label %return

if.end9:                                          ; preds = %if.then5
  %capacity10 = getelementptr inbounds %"class.icu_75::UVector", ptr %this1, i32 0, i32 2
  %8 = load i32, ptr %capacity10, align 4
  %mul = mul nsw i32 %8, 2
  store i32 %mul, ptr %newCap, align 4
  %9 = load i32, ptr %newCap, align 4
  %10 = load i32, ptr %minimumCapacity.addr, align 4
  %cmp11 = icmp slt i32 %9, %10
  br i1 %cmp11, label %if.then12, label %if.end13

if.then12:                                        ; preds = %if.end9
  %11 = load i32, ptr %minimumCapacity.addr, align 4
  store i32 %11, ptr %newCap, align 4
  br label %if.end13

if.end13:                                         ; preds = %if.then12, %if.end9
  %12 = load i32, ptr %newCap, align 4
  %cmp14 = icmp sgt i32 %12, 268435455
  br i1 %cmp14, label %if.then15, label %if.end16

if.then15:                                        ; preds = %if.end13
  %13 = load ptr, ptr %status.addr, align 8
  store i32 1, ptr %13, align 4
  store i8 0, ptr %retval, align 1
  br label %return

if.end16:                                         ; preds = %if.end13
  %elements = getelementptr inbounds %"class.icu_75::UVector", ptr %this1, i32 0, i32 3
  %14 = load ptr, ptr %elements, align 8
  %15 = load i32, ptr %newCap, align 4
  %conv = sext i32 %15 to i64
  %mul17 = mul i64 8, %conv
  %call18 = call ptr @uprv_realloc_75(ptr noundef %14, i64 noundef %mul17) #12
  store ptr %call18, ptr %newElems, align 8
  %16 = load ptr, ptr %newElems, align 8
  %cmp19 = icmp eq ptr %16, null
  br i1 %cmp19, label %if.then20, label %if.end21

if.then20:                                        ; preds = %if.end16
  %17 = load ptr, ptr %status.addr, align 8
  store i32 7, ptr %17, align 4
  store i8 0, ptr %retval, align 1
  br label %return

if.end21:                                         ; preds = %if.end16
  %18 = load ptr, ptr %newElems, align 8
  %elements22 = getelementptr inbounds %"class.icu_75::UVector", ptr %this1, i32 0, i32 3
  store ptr %18, ptr %elements22, align 8
  %19 = load i32, ptr %newCap, align 4
  %capacity23 = getelementptr inbounds %"class.icu_75::UVector", ptr %this1, i32 0, i32 2
  store i32 %19, ptr %capacity23, align 4
  br label %if.end24

if.end24:                                         ; preds = %if.end21, %if.end3
  store i8 1, ptr %retval, align 1
  br label %return

return:                                           ; preds = %if.end24, %if.then20, %if.then15, %if.then8, %if.then2, %if.then
  %20 = load i8, ptr %retval, align 1
  ret i8 %20
}

; Function Attrs: mustprogress uwtable
define void @_ZN6icu_757UVector6assignERKS0_PFvP8UElementS4_ER10UErrorCode(ptr noundef nonnull align 8 dereferenceable(40) %this, ptr noundef nonnull align 8 dereferenceable(40) %other, ptr noundef %assign, ptr noundef nonnull align 4 dereferenceable(4) %ec) #1 align 2 {
entry:
  %this.addr = alloca ptr, align 8
  %other.addr = alloca ptr, align 8
  %assign.addr = alloca ptr, align 8
  %ec.addr = alloca ptr, align 8
  %i = alloca i32, align 4
  store ptr %this, ptr %this.addr, align 8
  store ptr %other, ptr %other.addr, align 8
  store ptr %assign, ptr %assign.addr, align 8
  store ptr %ec, ptr %ec.addr, align 8
  %this1 = load ptr, ptr %this.addr, align 8
  %0 = load ptr, ptr %other.addr, align 8
  %count = getelementptr inbounds %"class.icu_75::UVector", ptr %0, i32 0, i32 1
  %1 = load i32, ptr %count, align 8
  %2 = load ptr, ptr %ec.addr, align 8
  %call = call noundef signext i8 @_ZN6icu_757UVector14ensureCapacityEiR10UErrorCode(ptr noundef nonnull align 8 dereferenceable(40) %this1, i32 noundef %1, ptr noundef nonnull align 4 dereferenceable(4) %2)
  %tobool = icmp ne i8 %call, 0
  br i1 %tobool, label %if.then, label %if.end21

if.then:                                          ; preds = %entry
  %3 = load ptr, ptr %other.addr, align 8
  %count2 = getelementptr inbounds %"class.icu_75::UVector", ptr %3, i32 0, i32 1
  %4 = load i32, ptr %count2, align 8
  %5 = load ptr, ptr %ec.addr, align 8
  call void @_ZN6icu_757UVector7setSizeEiR10UErrorCode(ptr noundef nonnull align 8 dereferenceable(40) %this1, i32 noundef %4, ptr noundef nonnull align 4 dereferenceable(4) %5)
  %6 = load ptr, ptr %ec.addr, align 8
  %7 = load i32, ptr %6, align 4
  %call3 = call noundef signext i8 @_ZL9U_SUCCESS10UErrorCode(i32 noundef %7)
  %tobool4 = icmp ne i8 %call3, 0
  br i1 %tobool4, label %if.then5, label %if.end20

if.then5:                                         ; preds = %if.then
  store i32 0, ptr %i, align 4
  br label %for.cond

for.cond:                                         ; preds = %for.inc, %if.then5
  %8 = load i32, ptr %i, align 4
  %9 = load ptr, ptr %other.addr, align 8
  %count6 = getelementptr inbounds %"class.icu_75::UVector", ptr %9, i32 0, i32 1
  %10 = load i32, ptr %count6, align 8
  %cmp = icmp slt i32 %8, %10
  br i1 %cmp, label %for.body, label %for.end

for.body:                                         ; preds = %for.cond
  %elements = getelementptr inbounds %"class.icu_75::UVector", ptr %this1, i32 0, i32 3
  %11 = load ptr, ptr %elements, align 8
  %12 = load i32, ptr %i, align 4
  %idxprom = sext i32 %12 to i64
  %arrayidx = getelementptr inbounds %union.UElement, ptr %11, i64 %idxprom
  %13 = load ptr, ptr %arrayidx, align 8
  %cmp7 = icmp ne ptr %13, null
  br i1 %cmp7, label %land.lhs.true, label %if.end

land.lhs.true:                                    ; preds = %for.body
  %deleter = getelementptr inbounds %"class.icu_75::UVector", ptr %this1, i32 0, i32 4
  %14 = load ptr, ptr %deleter, align 8
  %cmp8 = icmp ne ptr %14, null
  br i1 %cmp8, label %if.then9, label %if.end

if.then9:                                         ; preds = %land.lhs.true
  %deleter10 = getelementptr inbounds %"class.icu_75::UVector", ptr %this1, i32 0, i32 4
  %15 = load ptr, ptr %deleter10, align 8
  %elements11 = getelementptr inbounds %"class.icu_75::UVector", ptr %this1, i32 0, i32 3
  %16 = load ptr, ptr %elements11, align 8
  %17 = load i32, ptr %i, align 4
  %idxprom12 = sext i32 %17 to i64
  %arrayidx13 = getelementptr inbounds %union.UElement, ptr %16, i64 %idxprom12
  %18 = load ptr, ptr %arrayidx13, align 8
  call void %15(ptr noundef %18)
  br label %if.end

if.end:                                           ; preds = %if.then9, %land.lhs.true, %for.body
  %19 = load ptr, ptr %assign.addr, align 8
  %elements14 = getelementptr inbounds %"class.icu_75::UVector", ptr %this1, i32 0, i32 3
  %20 = load ptr, ptr %elements14, align 8
  %21 = load i32, ptr %i, align 4
  %idxprom15 = sext i32 %21 to i64
  %arrayidx16 = getelementptr inbounds %union.UElement, ptr %20, i64 %idxprom15
  %22 = load ptr, ptr %other.addr, align 8
  %elements17 = getelementptr inbounds %"class.icu_75::UVector", ptr %22, i32 0, i32 3
  %23 = load ptr, ptr %elements17, align 8
  %24 = load i32, ptr %i, align 4
  %idxprom18 = sext i32 %24 to i64
  %arrayidx19 = getelementptr inbounds %union.UElement, ptr %23, i64 %idxprom18
  call void %19(ptr noundef %arrayidx16, ptr noundef %arrayidx19)
  br label %for.inc

for.inc:                                          ; preds = %if.end
  %25 = load i32, ptr %i, align 4
  %inc = add nsw i32 %25, 1
  store i32 %inc, ptr %i, align 4
  br label %for.cond, !llvm.loop !6

for.end:                                          ; preds = %for.cond
  br label %if.end20

if.end20:                                         ; preds = %for.end, %if.then
  br label %if.end21

if.end21:                                         ; preds = %if.end20, %entry
  ret void
}