; Function Attrs: mustprogress uwtable
define void @_ZN6icu_757UVector6assignERKS0_PFvP8UElementS4_ER10UErrorCode(ptr nocapture noundef nonnull align 8 dereferenceable(40) %this, ptr nocapture noundef nonnull readonly align 8 dereferenceable(40) %other, ptr nocapture noundef readonly %assign, ptr nocapture noundef nonnull align 4 dereferenceable(4) %ec) local_unnamed_addr #1 align 2 {
entry:
  %count = getelementptr inbounds i8, ptr %other, i64 8
  %0 = load i32, ptr %count, align 8
  %1 = load i32, ptr %ec, align 4
  %cmp.i.i = icmp slt i32 %1, 1
  br i1 %cmp.i.i, label %if.end.i, label %if.end21

if.end.i:                                         ; preds = %entry
  %cmp.i = icmp slt i32 %0, 0
  br i1 %cmp.i, label %if.end21.sink.split, label %if.end3.i

if.end3.i:                                        ; preds = %if.end.i
  %capacity.i = getelementptr inbounds i8, ptr %this, i64 12
  %2 = load i32, ptr %capacity.i, align 4
  %cmp4.i = icmp slt i32 %2, %0
  br i1 %cmp4.i, label %if.then5.i, label %if.then

if.then5.i:                                       ; preds = %if.end3.i
  %cmp7.i = icmp sgt i32 %2, 1073741823
  br i1 %cmp7.i, label %if.end21.sink.split, label %if.end9.i

if.end9.i:                                        ; preds = %if.then5.i
  %mul.i = shl nsw i32 %2, 1
  %spec.select.i = tail call i32 @llvm.smax.i32(i32 %mul.i, i32 %0)
  %cmp14.i = icmp ugt i32 %spec.select.i, 268435455
  br i1 %cmp14.i, label %if.end21.sink.split, label %if.end16.i

if.end16.i:                                       ; preds = %if.end9.i
  %elements.i = getelementptr inbounds i8, ptr %this, i64 16
  %3 = load ptr, ptr %elements.i, align 8
  %4 = shl nuw nsw i32 %spec.select.i, 3
  %mul17.i = zext nneg i32 %4 to i64
  %call18.i = tail call ptr @uprv_realloc_75(ptr noundef %3, i64 noundef %mul17.i) #18
  %cmp19.i = icmp eq ptr %call18.i, null
  br i1 %cmp19.i, label %if.end21.sink.split, label %if.end21.i

if.end21.i:                                       ; preds = %if.end16.i
  store ptr %call18.i, ptr %elements.i, align 8
  store i32 %spec.select.i, ptr %capacity.i, align 4
  %.pre = load i32, ptr %count, align 8
  br label %if.then

if.then:                                          ; preds = %if.end21.i, %if.end3.i
  %5 = phi i32 [ %.pre, %if.end21.i ], [ %0, %if.end3.i ]
  tail call void @_ZN6icu_757UVector7setSizeEiR10UErrorCode(ptr noundef nonnull align 8 dereferenceable(40) %this, i32 noundef %5, ptr noundef nonnull align 4 dereferenceable(4) %ec)
  %6 = load i32, ptr %ec, align 4
  %cmp.i12 = icmp slt i32 %6, 1
  %7 = load i32, ptr %count, align 8
  %cmp15 = icmp sgt i32 %7, 0
  %or.cond = select i1 %cmp.i12, i1 %cmp15, i1 false
  br i1 %or.cond, label %for.body.lr.ph, label %if.end21

for.body.lr.ph:                                   ; preds = %if.then
  %elements = getelementptr inbounds i8, ptr %this, i64 16
  %deleter = getelementptr inbounds i8, ptr %this, i64 24
  %elements17 = getelementptr inbounds i8, ptr %other, i64 16
  br label %for.body

for.body:                                         ; preds = %for.body.lr.ph, %if.end
  %indvars.iv = phi i64 [ 0, %for.body.lr.ph ], [ %indvars.iv.next, %if.end ]
  %8 = load ptr, ptr %elements, align 8
  %arrayidx = getelementptr inbounds %union.UElement, ptr %8, i64 %indvars.iv
  %9 = load ptr, ptr %arrayidx, align 8
  %cmp7.not = icmp eq ptr %9, null
  br i1 %cmp7.not, label %if.end, label %land.lhs.true

land.lhs.true:                                    ; preds = %for.body
  %10 = load ptr, ptr %deleter, align 8
  %cmp8.not = icmp eq ptr %10, null
  br i1 %cmp8.not, label %if.end, label %if.then9

if.then9:                                         ; preds = %land.lhs.true
  tail call void %10(ptr noundef nonnull %9)
  %.pre18 = load ptr, ptr %elements, align 8
  br label %if.end

if.end:                                           ; preds = %if.then9, %land.lhs.true, %for.body
  %11 = phi ptr [ %.pre18, %if.then9 ], [ %8, %land.lhs.true ], [ %8, %for.body ]
  %arrayidx16 = getelementptr inbounds %union.UElement, ptr %11, i64 %indvars.iv
  %12 = load ptr, ptr %elements17, align 8
  %arrayidx19 = getelementptr inbounds %union.UElement, ptr %12, i64 %indvars.iv
  tail call void %assign(ptr noundef %arrayidx16, ptr noundef %arrayidx19)
  %indvars.iv.next = add nuw nsw i64 %indvars.iv, 1
  %13 = load i32, ptr %count, align 8
  %14 = sext i32 %13 to i64
  %cmp = icmp slt i64 %indvars.iv.next, %14
  br i1 %cmp, label %for.body, label %if.end21, !llvm.loop !6

if.end21.sink.split:                              ; preds = %if.end16.i, %if.end9.i, %if.then5.i, %if.end.i
  %.sink = phi i32 [ 1, %if.end.i ], [ 1, %if.then5.i ], [ 1, %if.end9.i ], [ 7, %if.end16.i ]
  store i32 %.sink, ptr %ec, align 4
  br label %if.end21

if.end21:                                         ; preds = %if.end, %if.end21.sink.split, %entry, %if.then
  ret void
}